target datalayout = "e-m:e-p270:32:32-p271:32:32-p272:64:64-i64:64-i128:128-f80:128-n8:16:32:64-S128"
target triple = "x86_64-pc-linux-gnu"

@server_cert = internal global ptr null, align 8
@server_key = internal global ptr null, align 8
@client_cert = internal global ptr null, align 8
@client_key = internal global ptr null, align 8
@default_null_provider = internal global ptr null, align 8
@provider = internal global ptr null, align 8
@libctx = internal global ptr null, align 8
@.str.14 = private unnamed_addr constant [34 x i8] c"../openssl/test/cmp_client_test.c\00", align 1
@.str.15 = private unnamed_addr constant [28 x i8] c"Error parsing test options\0A\00", align 1
@.str.16 = private unnamed_addr constant [36 x i8] c"server_key_f = test_get_argument(0)\00", align 1
@server_key_f = internal global ptr null, align 8
@.str.17 = private unnamed_addr constant [37 x i8] c"server_cert_f = test_get_argument(1)\00", align 1
@server_cert_f = internal global ptr null, align 8
@.str.18 = private unnamed_addr constant [36 x i8] c"client_key_f = test_get_argument(2)\00", align 1
@client_key_f = internal global ptr null, align 8
@.str.19 = private unnamed_addr constant [37 x i8] c"client_cert_f = test_get_argument(3)\00", align 1
@client_cert_f = internal global ptr null, align 8
@.str.20 = private unnamed_addr constant [32 x i8] c"pkcs10_f = test_get_argument(4)\00", align 1
@pkcs10_f = internal global ptr null, align 8
@.str.21 = private unnamed_addr constant [26 x i8] c"usage: cmp_client_test %s\00", align 1
@.str.22 = private unnamed_addr constant [87 x i8] c"server.key server.crt client.key client.crt client.csr module_name [module_conf_file]\0A\00", align 1
@.str.23 = private unnamed_addr constant [49 x i8] c"server_key = load_pkey_pem(server_key_f, libctx)\00", align 1
@.str.24 = private unnamed_addr constant [51 x i8] c"server_cert = load_cert_pem(server_cert_f, libctx)\00", align 1
@.str.25 = private unnamed_addr constant [49 x i8] c"client_key = load_pkey_pem(client_key_f, libctx)\00", align 1
@.str.26 = private unnamed_addr constant [51 x i8] c"client_cert = load_cert_pem(client_cert_f, libctx)\00", align 1
@.str.27 = private unnamed_addr constant [2 x i8] c"1\00", align 1
@.str.28 = private unnamed_addr constant [43 x i8] c"RAND_bytes_ex(libctx, ref, sizeof(ref), 0)\00", align 1
@ref = internal global [15 x i8] zeroinitializer, align 1
@.str.29 = private unnamed_addr constant [20 x i8] c"test_exec_RR_ses_ok\00", align 1
@.str.30 = private unnamed_addr constant [31 x i8] c"test_exec_RR_ses_request_error\00", align 1
@.str.31 = private unnamed_addr constant [31 x i8] c"test_exec_RR_ses_receive_error\00", align 1
@.str.32 = private unnamed_addr constant [34 x i8] c"test_exec_CR_ses_explicit_confirm\00", align 1
@.str.33 = private unnamed_addr constant [34 x i8] c"test_exec_CR_ses_implicit_confirm\00", align 1
@.str.34 = private unnamed_addr constant [17 x i8] c"test_exec_IR_ses\00", align 1
@.str.35 = private unnamed_addr constant [25 x i8] c"test_exec_IR_ses_poll_ok\00", align 1
@.str.36 = private unnamed_addr constant [33 x i8] c"test_exec_IR_ses_poll_no_timeout\00", align 1
@.str.37 = private unnamed_addr constant [36 x i8] c"test_exec_IR_ses_poll_total_timeout\00", align 1
@.str.38 = private unnamed_addr constant [21 x i8] c"test_exec_KUR_ses_ok\00", align 1
@.str.39 = private unnamed_addr constant [33 x i8] c"test_exec_KUR_ses_transfer_error\00", align 1
@.str.40 = private unnamed_addr constant [29 x i8] c"test_exec_KUR_ses_wrong_popo\00", align 1
@.str.41 = private unnamed_addr constant [22 x i8] c"test_exec_KUR_ses_pub\00", align 1
@.str.42 = private unnamed_addr constant [28 x i8] c"test_exec_KUR_ses_wrong_pub\00", align 1
@.str.43 = private unnamed_addr constant [23 x i8] c"test_exec_P10CR_ses_ok\00", align 1
@.str.44 = private unnamed_addr constant [27 x i8] c"test_exec_P10CR_ses_reject\00", align 1
@.str.45 = private unnamed_addr constant [22 x i8] c"test_try_certreq_poll\00", align 1
@.str.46 = private unnamed_addr constant [28 x i8] c"test_try_certreq_poll_abort\00", align 1
@.str.47 = private unnamed_addr constant [22 x i8] c"test_exec_GENM_ses_ok\00", align 1
@.str.48 = private unnamed_addr constant [34 x i8] c"test_exec_GENM_ses_transfer_error\00", align 1
@.str.49 = private unnamed_addr constant [33 x i8] c"test_exec_GENM_ses_total_timeout\00", align 1
@.str.50 = private unnamed_addr constant [27 x i8] c"test_exec_GENM_ses_poll_ok\00", align 1
@.str.51 = private unnamed_addr constant [35 x i8] c"test_exec_GENM_ses_poll_no_timeout\00", align 1
@.str.52 = private unnamed_addr constant [38 x i8] c"test_exec_GENM_ses_poll_total_timeout\00", align 1
@.str.53 = private unnamed_addr constant [23 x i8] c"test_exchange_certConf\00", align 1
@.str.54 = private unnamed_addr constant [20 x i8] c"test_exchange_error\00", align 1

; Function Attrs: nounwind uwtable
define dso_local void @cleanup_tests() #0 {
  %1 = load ptr, ptr @server_cert, align 8, !tbaa !4
  call void @X509_free(ptr noundef %1)
  %2 = load ptr, ptr @server_key, align 8, !tbaa !9
  call void @EVP_PKEY_free(ptr noundef %2)
  %3 = load ptr, ptr @client_cert, align 8, !tbaa !4
  call void @X509_free(ptr noundef %3)
  %4 = load ptr, ptr @client_key, align 8, !tbaa !9
  call void @EVP_PKEY_free(ptr noundef %4)
  %5 = load ptr, ptr @default_null_provider, align 8, !tbaa !11
  %6 = call i32 @OSSL_PROVIDER_unload(ptr noundef %5)
  %7 = load ptr, ptr @provider, align 8, !tbaa !11
  %8 = call i32 @OSSL_PROVIDER_unload(ptr noundef %7)
  %9 = load ptr, ptr @libctx, align 8, !tbaa !13
  call void @OSSL_LIB_CTX_free(ptr noundef %9)
  ret void
}

; Function Attrs: nounwind uwtable
define dso_local i32 @setup_tests() #0 {
  %1 = alloca i32, align 4
  %2 = call i32 @test_skip_common_options()
  %3 = icmp ne i32 %2, 0
  br i1 %3, label %5, label %4

4:                                                ; preds = %0
  call void (ptr, i32, ptr, ...) @test_error(ptr noundef @.str.14, i32 noundef 528, ptr noundef @.str.15)
  store i32 0, ptr %1, align 4
  br label %61

5:                                                ; preds = %0
  %6 = call ptr @test_get_argument(i64 noundef 0)
  store ptr %6, ptr @server_key_f, align 8, !tbaa !15
  %7 = call i32 @test_ptr(ptr noundef @.str.14, i32 noundef 532, ptr noundef @.str.16, ptr noundef %6)
  %8 = icmp ne i32 %7, 0
  br i1 %8, label %9, label %25

9:                                                ; preds = %5
  %10 = call ptr @test_get_argument(i64 noundef 1)
  store ptr %10, ptr @server_cert_f, align 8, !tbaa !15
  %11 = call i32 @test_ptr(ptr noundef @.str.14, i32 noundef 533, ptr noundef @.str.17, ptr noundef %10)
  %12 = icmp ne i32 %11, 0
  br i1 %12, label %13, label %25

13:                                               ; preds = %9
  %14 = call ptr @test_get_argument(i64 noundef 2)
  store ptr %14, ptr @client_key_f, align 8, !tbaa !15
  %15 = call i32 @test_ptr(ptr noundef @.str.14, i32 noundef 534, ptr noundef @.str.18, ptr noundef %14)
  %16 = icmp ne i32 %15, 0
  br i1 %16, label %17, label %25

17:                                               ; preds = %13
  %18 = call ptr @test_get_argument(i64 noundef 3)
  store ptr %18, ptr @client_cert_f, align 8, !tbaa !15
  %19 = call i32 @test_ptr(ptr noundef @.str.14, i32 noundef 535, ptr noundef @.str.19, ptr noundef %18)
  %20 = icmp ne i32 %19, 0
  br i1 %20, label %21, label %25

21:                                               ; preds = %17
  %22 = call ptr @test_get_argument(i64 noundef 4)
  store ptr %22, ptr @pkcs10_f, align 8, !tbaa !15
  %23 = call i32 @test_ptr(ptr noundef @.str.14, i32 noundef 536, ptr noundef @.str.20, ptr noundef %22)
  %24 = icmp ne i32 %23, 0
  br i1 %24, label %26, label %25

25:                                               ; preds = %21, %17, %13, %9, %5
  call void (ptr, i32, ptr, ...) @test_error(ptr noundef @.str.14, i32 noundef 537, ptr noundef @.str.21, ptr noundef @.str.22)
  store i32 0, ptr %1, align 4
  br label %61

26:                                               ; preds = %21
  %27 = call i32 @test_arg_libctx(ptr noundef @libctx, ptr noundef @default_null_provider, ptr noundef @provider, i32 noundef 5, ptr noundef @.str.22)
  %28 = icmp ne i32 %27, 0
  br i1 %28, label %30, label %29

29:                                               ; preds = %26
  store i32 0, ptr %1, align 4
  br label %61

30:                                               ; preds = %26
  %31 = load ptr, ptr @server_key_f, align 8, !tbaa !15
  %32 = load ptr, ptr @libctx, align 8, !tbaa !13
  %33 = call ptr @load_pkey_pem(ptr noundef %31, ptr noundef %32)
  store ptr %33, ptr @server_key, align 8, !tbaa !9
  %34 = call i32 @test_ptr(ptr noundef @.str.14, i32 noundef 544, ptr noundef @.str.23, ptr noundef %33)
  %35 = icmp ne i32 %34, 0
  br i1 %35, label %36, label %59

36:                                               ; preds = %30
  %37 = load ptr, ptr @server_cert_f, align 8, !tbaa !15
  %38 = load ptr, ptr @libctx, align 8, !tbaa !13
  %39 = call ptr @load_cert_pem(ptr noundef %37, ptr noundef %38)
  store ptr %39, ptr @server_cert, align 8, !tbaa !4
  %40 = call i32 @test_ptr(ptr noundef @.str.14, i32 noundef 545, ptr noundef @.str.24, ptr noundef %39)
  %41 = icmp ne i32 %40, 0
  br i1 %41, label %42, label %59

42:                                               ; preds = %36
  %43 = load ptr, ptr @client_key_f, align 8, !tbaa !15
  %44 = load ptr, ptr @libctx, align 8, !tbaa !13
  %45 = call ptr @load_pkey_pem(ptr noundef %43, ptr noundef %44)
  store ptr %45, ptr @client_key, align 8, !tbaa !9
  %46 = call i32 @test_ptr(ptr noundef @.str.14, i32 noundef 546, ptr noundef @.str.25, ptr noundef %45)
  %47 = icmp ne i32 %46, 0
  br i1 %47, label %48, label %59

48:                                               ; preds = %42
  %49 = load ptr, ptr @client_cert_f, align 8, !tbaa !15
  %50 = load ptr, ptr @libctx, align 8, !tbaa !13
  %51 = call ptr @load_cert_pem(ptr noundef %49, ptr noundef %50)
  store ptr %51, ptr @client_cert, align 8, !tbaa !4
  %52 = call i32 @test_ptr(ptr noundef @.str.14, i32 noundef 547, ptr noundef @.str.26, ptr noundef %51)
  %53 = icmp ne i32 %52, 0
  br i1 %53, label %54, label %59

54:                                               ; preds = %48
  %55 = load ptr, ptr @libctx, align 8, !tbaa !13
  %56 = call i32 @RAND_bytes_ex(ptr noundef %55, ptr noundef @ref, i64 noundef 15, i32 noundef 0)
  %57 = call i32 @test_int_eq(ptr noundef @.str.14, i32 noundef 548, ptr noundef @.str.27, ptr noundef @.str.28, i32 noundef 1, i32 noundef %56)
  %58 = icmp ne i32 %57, 0
  br i1 %58, label %60, label %59

59:                                               ; preds = %54, %48, %42, %36, %30
  call void @cleanup_tests()
  store i32 0, ptr %1, align 4
  br label %61

60:                                               ; preds = %54
  call void @add_test(ptr noundef @.str.29, ptr noundef @test_exec_RR_ses_ok)
  call void @add_test(ptr noundef @.str.30, ptr noundef @test_exec_RR_ses_request_error)
  call void @add_test(ptr noundef @.str.31, ptr noundef @test_exec_RR_ses_receive_error)
  call void @add_test(ptr noundef @.str.32, ptr noundef @test_exec_CR_ses_explicit_confirm)
  call void @add_test(ptr noundef @.str.33, ptr noundef @test_exec_CR_ses_implicit_confirm)
  call void @add_test(ptr noundef @.str.34, ptr noundef @test_exec_IR_ses)
  call void @add_test(ptr noundef @.str.35, ptr noundef @test_exec_IR_ses_poll_ok)
  call void @add_test(ptr noundef @.str.36, ptr noundef @test_exec_IR_ses_poll_no_timeout)
  call void @add_test(ptr noundef @.str.37, ptr noundef @test_exec_IR_ses_poll_total_timeout)
  call void @add_test(ptr noundef @.str.38, ptr noundef @test_exec_KUR_ses_ok)
  call void @add_test(ptr noundef @.str.39, ptr noundef @test_exec_KUR_ses_transfer_error)
  call void @add_test(ptr noundef @.str.40, ptr noundef @test_exec_KUR_ses_wrong_popo)
  call void @add_test(ptr noundef @.str.41, ptr noundef @test_exec_KUR_ses_pub)
  call void @add_test(ptr noundef @.str.42, ptr noundef @test_exec_KUR_ses_wrong_pub)
  call void @add_test(ptr noundef @.str.43, ptr noundef @test_exec_P10CR_ses_ok)
  call void @add_test(ptr noundef @.str.44, ptr noundef @test_exec_P10CR_ses_reject)
  call void @add_test(ptr noundef @.str.45, ptr noundef @test_try_certreq_poll)
  call void @add_test(ptr noundef @.str.46, ptr noundef @test_try_certreq_poll_abort)
  call void @add_test(ptr noundef @.str.47, ptr noundef @test_exec_GENM_ses_ok)
  call void @add_test(ptr noundef @.str.48, ptr noundef @test_exec_GENM_ses_transfer_error)
  call void @add_test(ptr noundef @.str.49, ptr noundef @test_exec_GENM_ses_total_timeout)
  call void @add_test(ptr noundef @.str.50, ptr noundef @test_exec_GENM_ses_poll_ok)
  call void @add_test(ptr noundef @.str.51, ptr noundef @test_exec_GENM_ses_poll_no_timeout)
  call void @add_test(ptr noundef @.str.52, ptr noundef @test_exec_GENM_ses_poll_total_timeout)
  call void @add_test(ptr noundef @.str.53, ptr noundef @test_exchange_certConf)
  call void @add_test(ptr noundef @.str.54, ptr noundef @test_exchange_error)
  store i32 1, ptr %1, align 4
  br label %61

61:                                               ; preds = %60, %59, %29, %25, %4
  %62 = load i32, ptr %1, align 4
  ret i32 %62
}