; Function Attrs: nounwind uwtable
define dso_local range(i32 0, 2) i32 @setup_tests() local_unnamed_addr #0 {
  %1 = tail call i32 @test_skip_common_options() #4
  %.not = icmp eq i32 %1, 0
  br i1 %.not, label %2, label %3

2:                                                ; preds = %0
  tail call void (ptr, i32, ptr, ...) @test_error(ptr noundef nonnull @.str.14, i32 noundef 528, ptr noundef nonnull @.str.15) #4
  br label %56

3:                                                ; preds = %0
  %4 = tail call ptr @test_get_argument(i64 noundef 0) #4
  store ptr %4, ptr @server_key_f, align 8, !tbaa !15
  %5 = tail call i32 @test_ptr(ptr noundef nonnull @.str.14, i32 noundef 532, ptr noundef nonnull @.str.16, ptr noundef %4) #4
  %.not1 = icmp eq i32 %5, 0
  br i1 %.not1, label %18, label %6

6:                                                ; preds = %3
  %7 = tail call ptr @test_get_argument(i64 noundef 1) #4
  store ptr %7, ptr @server_cert_f, align 8, !tbaa !15
  %8 = tail call i32 @test_ptr(ptr noundef nonnull @.str.14, i32 noundef 533, ptr noundef nonnull @.str.17, ptr noundef %7) #4
  %.not2 = icmp eq i32 %8, 0
  br i1 %.not2, label %18, label %9

9:                                                ; preds = %6
  %10 = tail call ptr @test_get_argument(i64 noundef 2) #4
  store ptr %10, ptr @client_key_f, align 8, !tbaa !15
  %11 = tail call i32 @test_ptr(ptr noundef nonnull @.str.14, i32 noundef 534, ptr noundef nonnull @.str.18, ptr noundef %10) #4
  %.not3 = icmp eq i32 %11, 0
  br i1 %.not3, label %18, label %12

12:                                               ; preds = %9
  %13 = tail call ptr @test_get_argument(i64 noundef 3) #4
  store ptr %13, ptr @client_cert_f, align 8, !tbaa !15
  %14 = tail call i32 @test_ptr(ptr noundef nonnull @.str.14, i32 noundef 535, ptr noundef nonnull @.str.19, ptr noundef %13) #4
  %.not4 = icmp eq i32 %14, 0
  br i1 %.not4, label %18, label %15

15:                                               ; preds = %12
  %16 = tail call ptr @test_get_argument(i64 noundef 4) #4
  store ptr %16, ptr @pkcs10_f, align 8, !tbaa !15
  %17 = tail call i32 @test_ptr(ptr noundef nonnull @.str.14, i32 noundef 536, ptr noundef nonnull @.str.20, ptr noundef %16) #4
  %.not5 = icmp eq i32 %17, 0
  br i1 %.not5, label %18, label %19

18:                                               ; preds = %15, %12, %9, %6, %3
  tail call void (ptr, i32, ptr, ...) @test_error(ptr noundef nonnull @.str.14, i32 noundef 537, ptr noundef nonnull @.str.21, ptr noundef nonnull @.str.22) #4
  br label %56

19:                                               ; preds = %15
  %20 = tail call i32 @test_arg_libctx(ptr noundef nonnull @libctx, ptr noundef nonnull @default_null_provider, ptr noundef nonnull @provider, i32 noundef 5, ptr noundef nonnull @.str.22) #4
  %.not6 = icmp eq i32 %20, 0
  br i1 %.not6, label %56, label %21

21:                                               ; preds = %19
  %22 = load ptr, ptr @server_key_f, align 8, !tbaa !15
  %23 = load ptr, ptr @libctx, align 8, !tbaa !13
  %24 = tail call ptr @load_pkey_pem(ptr noundef %22, ptr noundef %23) #4
  store ptr %24, ptr @server_key, align 8, !tbaa !9
  %25 = tail call i32 @test_ptr(ptr noundef nonnull @.str.14, i32 noundef 544, ptr noundef nonnull @.str.23, ptr noundef %24) #4
  %.not7 = icmp eq i32 %25, 0
  br i1 %.not7, label %45, label %26

26:                                               ; preds = %21
  %27 = load ptr, ptr @server_cert_f, align 8, !tbaa !15
  %28 = load ptr, ptr @libctx, align 8, !tbaa !13
  %29 = tail call ptr @load_cert_pem(ptr noundef %27, ptr noundef %28) #4
  store ptr %29, ptr @server_cert, align 8, !tbaa !4
  %30 = tail call i32 @test_ptr(ptr noundef nonnull @.str.14, i32 noundef 545, ptr noundef nonnull @.str.24, ptr noundef %29) #4
  %.not8 = icmp eq i32 %30, 0
  br i1 %.not8, label %45, label %31

31:                                               ; preds = %26
  %32 = load ptr, ptr @client_key_f, align 8, !tbaa !15
  %33 = load ptr, ptr @libctx, align 8, !tbaa !13
  %34 = tail call ptr @load_pkey_pem(ptr noundef %32, ptr noundef %33) #4
  store ptr %34, ptr @client_key, align 8, !tbaa !9
  %35 = tail call i32 @test_ptr(ptr noundef nonnull @.str.14, i32 noundef 546, ptr noundef nonnull @.str.25, ptr noundef %34) #4
  %.not9 = icmp eq i32 %35, 0
  br i1 %.not9, label %45, label %36

36:                                               ; preds = %31
  %37 = load ptr, ptr @client_cert_f, align 8, !tbaa !15
  %38 = load ptr, ptr @libctx, align 8, !tbaa !13
  %39 = tail call ptr @load_cert_pem(ptr noundef %37, ptr noundef %38) #4
  store ptr %39, ptr @client_cert, align 8, !tbaa !4
  %40 = tail call i32 @test_ptr(ptr noundef nonnull @.str.14, i32 noundef 547, ptr noundef nonnull @.str.26, ptr noundef %39) #4
  %.not10 = icmp eq i32 %40, 0
  br i1 %.not10, label %45, label %41

41:                                               ; preds = %36
  %42 = load ptr, ptr @libctx, align 8, !tbaa !13
  %43 = tail call i32 @RAND_bytes_ex(ptr noundef %42, ptr noundef nonnull @ref, i64 noundef 15, i32 noundef 0) #4
  %44 = tail call i32 @test_int_eq(ptr noundef nonnull @.str.14, i32 noundef 548, ptr noundef nonnull @.str.27, ptr noundef nonnull @.str.28, i32 noundef 1, i32 noundef %43) #4
  %.not11 = icmp eq i32 %44, 0
  br i1 %.not11, label %45, label %55

45:                                               ; preds = %41, %36, %31, %26, %21
  %46 = load ptr, ptr @server_cert, align 8, !tbaa !4
  tail call void @X509_free(ptr noundef %46) #4
  %47 = load ptr, ptr @server_key, align 8, !tbaa !9
  tail call void @EVP_PKEY_free(ptr noundef %47) #4
  %48 = load ptr, ptr @client_cert, align 8, !tbaa !4
  tail call void @X509_free(ptr noundef %48) #4
  %49 = load ptr, ptr @client_key, align 8, !tbaa !9
  tail call void @EVP_PKEY_free(ptr noundef %49) #4
  %50 = load ptr, ptr @default_null_provider, align 8, !tbaa !11
  %51 = tail call i32 @OSSL_PROVIDER_unload(ptr noundef %50) #4
  %52 = load ptr, ptr @provider, align 8, !tbaa !11
  %53 = tail call i32 @OSSL_PROVIDER_unload(ptr noundef %52) #4
  %54 = load ptr, ptr @libctx, align 8, !tbaa !13
  tail call void @OSSL_LIB_CTX_free(ptr noundef %54) #4
  br label %56

55:                                               ; preds = %41
  tail call void @add_test(ptr noundef nonnull @.str.29, ptr noundef nonnull @test_exec_RR_ses_ok) #4
  tail call void @add_test(ptr noundef nonnull @.str.30, ptr noundef nonnull @test_exec_RR_ses_request_error) #4
  tail call void @add_test(ptr noundef nonnull @.str.31, ptr noundef nonnull @test_exec_RR_ses_receive_error) #4
  tail call void @add_test(ptr noundef nonnull @.str.32, ptr noundef nonnull @test_exec_CR_ses_explicit_confirm) #4
  tail call void @add_test(ptr noundef nonnull @.str.33, ptr noundef nonnull @test_exec_CR_ses_implicit_confirm) #4
  tail call void @add_test(ptr noundef nonnull @.str.34, ptr noundef nonnull @test_exec_IR_ses) #4
  tail call void @add_test(ptr noundef nonnull @.str.35, ptr noundef nonnull @test_exec_IR_ses_poll_ok) #4
  tail call void @add_test(ptr noundef nonnull @.str.36, ptr noundef nonnull @test_exec_IR_ses_poll_no_timeout) #4
  tail call void @add_test(ptr noundef nonnull @.str.37, ptr noundef nonnull @test_exec_IR_ses_poll_total_timeout) #4
  tail call void @add_test(ptr noundef nonnull @.str.38, ptr noundef nonnull @test_exec_KUR_ses_ok) #4
  tail call void @add_test(ptr noundef nonnull @.str.39, ptr noundef nonnull @test_exec_KUR_ses_transfer_error) #4
  tail call void @add_test(ptr noundef nonnull @.str.40, ptr noundef nonnull @test_exec_KUR_ses_wrong_popo) #4
  tail call void @add_test(ptr noundef nonnull @.str.41, ptr noundef nonnull @test_exec_KUR_ses_pub) #4
  tail call void @add_test(ptr noundef nonnull @.str.42, ptr noundef nonnull @test_exec_KUR_ses_wrong_pub) #4
  tail call void @add_test(ptr noundef nonnull @.str.43, ptr noundef nonnull @test_exec_P10CR_ses_ok) #4
  tail call void @add_test(ptr noundef nonnull @.str.44, ptr noundef nonnull @test_exec_P10CR_ses_reject) #4
  tail call void @add_test(ptr noundef nonnull @.str.45, ptr noundef nonnull @test_try_certreq_poll) #4
  tail call void @add_test(ptr noundef nonnull @.str.46, ptr noundef nonnull @test_try_certreq_poll_abort) #4
  tail call void @add_test(ptr noundef nonnull @.str.47, ptr noundef nonnull @test_exec_GENM_ses_ok) #4
  tail call void @add_test(ptr noundef nonnull @.str.48, ptr noundef nonnull @test_exec_GENM_ses_transfer_error) #4
  tail call void @add_test(ptr noundef nonnull @.str.49, ptr noundef nonnull @test_exec_GENM_ses_total_timeout) #4
  tail call void @add_test(ptr noundef nonnull @.str.50, ptr noundef nonnull @test_exec_GENM_ses_poll_ok) #4
  tail call void @add_test(ptr noundef nonnull @.str.51, ptr noundef nonnull @test_exec_GENM_ses_poll_no_timeout) #4
  tail call void @add_test(ptr noundef nonnull @.str.52, ptr noundef nonnull @test_exec_GENM_ses_poll_total_timeout) #4
  tail call void @add_test(ptr noundef nonnull @.str.53, ptr noundef nonnull @test_exchange_certConf) #4
  tail call void @add_test(ptr noundef nonnull @.str.54, ptr noundef nonnull @test_exchange_error) #4
  br label %56

56:                                               ; preds = %19, %55, %45, %18, %2
  %.0 = phi i32 [ 1, %55 ], [ 0, %45 ], [ 0, %18 ], [ 0, %2 ], [ 0, %19 ]
  ret i32 %.0
}